; Function Attrs: nounwind uwtable
define internal i32 @dictview_traverse(ptr noundef readonly captures(none) %0, ptr noundef readonly captures(none) %1, ptr noundef %2) #0 {
  %4 = getelementptr inbounds nuw i8, ptr %0, i64 16
  %5 = load ptr, ptr %4, align 8, !tbaa !203
  %.not = icmp eq ptr %5, null
  br i1 %.not, label %8, label %6

6:                                                ; preds = %3
  %7 = tail call i32 %1(ptr noundef nonnull %5, ptr noundef %2) #23
  %.not10 = icmp eq i32 %7, 0
  br i1 %.not10, label %8, label %9

8:                                                ; preds = %6, %3
  br label %9

9:                                                ; preds = %6, %8
  %.1 = phi i32 [ 0, %8 ], [ %7, %6 ]
  ret i32 %.1
}